; Function Attrs: nounwind uwtable
define i32 @SUNNonlinSolSetLSolveFn(ptr noundef %0, ptr noundef %1) local_unnamed_addr #4 {
  %3 = getelementptr inbounds nuw i8, ptr %0, i64 8
  %4 = load ptr, ptr %3, align 8, !tbaa !10
  %5 = getelementptr inbounds nuw i8, ptr %4, i64 56
  %6 = load ptr, ptr %5, align 8, !tbaa !20
  %.not = icmp eq ptr %6, null
  br i1 %.not, label %9, label %7

7:                                                ; preds = %2
  %8 = tail call i32 %6(ptr noundef nonnull %0, ptr noundef %1) #7
  br label %9

9:                                                ; preds = %2, %7
  %.0 = phi i32 [ %8, %7 ], [ 0, %2 ]
  ret i32 %.0
}